target datalayout = "e-m:e-p270:32:32-p271:32:32-p272:64:64-i64:64-i128:128-f80:128-n8:16:32:64-S128"
target triple = "x86_64-pc-linux-gnu"

%"class.llvm::StringRef" = type { ptr, i64 }
%"class.std::basic_string_view" = type { i64, ptr }
%"struct.(anonymous namespace)::FoldingSetNodeIDBuilder" = type { ptr }
%"class.llvm::itanium_demangle::Node.base" = type <{ ptr, i8, i16 }>
%"struct.(anonymous namespace)::ProfileNode" = type { ptr }
%"struct.(anonymous namespace)::ProfileSpecificNode.30" = type { ptr }
%"struct.llvm::itanium_demangle::AbiTagAttr" = type { %"class.llvm::itanium_demangle::Node.base", ptr, %"class.std::basic_string_view" }

; Function Attrs: mustprogress nounwind uwtable
define linkonce_odr hidden void @_ZN4llvm16FoldingSetNodeID10AddIntegerEm(ptr noundef nonnull align 8 dereferenceable(144) %0, i64 noundef %1) #0 comdat align 2 {
  %3 = alloca ptr, align 8
  %4 = alloca i64, align 8
  store ptr %0, ptr %3, align 8
  store i64 %1, ptr %4, align 8
  %5 = load ptr, ptr %3, align 8
  %6 = load i64, ptr %4, align 8
  call void @_ZN4llvm16FoldingSetNodeID10AddIntegerEy(ptr noundef nonnull align 8 dereferenceable(144) %5, i64 noundef %6)
  ret void
}

; Function Attrs: mustprogress nounwind uwtable
define linkonce_odr hidden void @_ZN4llvm9StringRefC2EPKcm(ptr noundef nonnull align 8 dereferenceable(16) %0, ptr noundef %1, i64 noundef %2) unnamed_addr #0 comdat align 2 {
  %4 = alloca ptr, align 8
  %5 = alloca ptr, align 8
  %6 = alloca i64, align 8
  store ptr %0, ptr %4, align 8
  store ptr %1, ptr %5, align 8
  store i64 %2, ptr %6, align 8
  %7 = load ptr, ptr %4, align 8
  %8 = getelementptr inbounds nuw %"class.llvm::StringRef", ptr %7, i32 0, i32 0
  %9 = load ptr, ptr %5, align 8
  store ptr %9, ptr %8, align 8
  %10 = getelementptr inbounds nuw %"class.llvm::StringRef", ptr %7, i32 0, i32 1
  %11 = load i64, ptr %6, align 8
  store i64 %11, ptr %10, align 8
  ret void
}

; Function Attrs: mustprogress nounwind uwtable
define linkonce_odr hidden noundef i64 @_ZNKSt17basic_string_viewIcSt11char_traitsIcEE4sizeEv(ptr noundef nonnull align 8 dereferenceable(16) %0) #0 comdat align 2 {
  %2 = alloca ptr, align 8
  store ptr %0, ptr %2, align 8
  %3 = load ptr, ptr %2, align 8
  %4 = getelementptr inbounds nuw %"class.std::basic_string_view", ptr %3, i32 0, i32 0
  %5 = load i64, ptr %4, align 8
  ret i64 %5
}

; Function Attrs: mustprogress nounwind uwtable
define linkonce_odr hidden noundef ptr @_ZNKSt17basic_string_viewIcSt11char_traitsIcEE5beginEv(ptr noundef nonnull align 8 dereferenceable(16) %0) #0 comdat align 2 {
  %2 = alloca ptr, align 8
  store ptr %0, ptr %2, align 8
  %3 = load ptr, ptr %2, align 8
  %4 = getelementptr inbounds nuw %"class.std::basic_string_view", ptr %3, i32 0, i32 1
  %5 = load ptr, ptr %4, align 8
  ret ptr %5
}

; Function Attrs: mustprogress nounwind uwtable
define linkonce_odr hidden void @_ZN4llvm9StringRefC2Ev(ptr noundef nonnull align 8 dereferenceable(16) %0) unnamed_addr #0 comdat align 2 {
  %2 = alloca ptr, align 8
  store ptr %0, ptr %2, align 8
  %3 = load ptr, ptr %2, align 8
  %4 = getelementptr inbounds nuw %"class.llvm::StringRef", ptr %3, i32 0, i32 0
  store ptr null, ptr %4, align 8
  %5 = getelementptr inbounds nuw %"class.llvm::StringRef", ptr %3, i32 0, i32 1
  store i64 0, ptr %5, align 8
  ret void
}

; Function Attrs: mustprogress nounwind uwtable
define linkonce_odr hidden noundef zeroext i1 @_ZNKSt17basic_string_viewIcSt11char_traitsIcEE5emptyEv(ptr noundef nonnull align 8 dereferenceable(16) %0) #0 comdat align 2 {
  %2 = alloca ptr, align 8
  store ptr %0, ptr %2, align 8
  %3 = load ptr, ptr %2, align 8
  %4 = getelementptr inbounds nuw %"class.std::basic_string_view", ptr %3, i32 0, i32 0
  %5 = load i64, ptr %4, align 8
  %6 = icmp eq i64 %5, 0
  ret i1 %6
}

; Function Attrs: mustprogress nounwind uwtable
define linkonce_odr hidden void @_ZN4llvm16FoldingSetNodeID10AddPointerEPKv(ptr noundef nonnull align 8 dereferenceable(144) %0, ptr noundef %1) #0 comdat align 2 {
  %3 = alloca ptr, align 8
  %4 = alloca ptr, align 8
  store ptr %0, ptr %3, align 8
  store ptr %1, ptr %4, align 8
  %5 = load ptr, ptr %3, align 8
  %6 = load ptr, ptr %4, align 8
  %7 = ptrtoint ptr %6 to i64
  call void @_ZN4llvm16FoldingSetNodeID10AddIntegerEm(ptr noundef nonnull align 8 dereferenceable(144) %5, i64 noundef %7)
  ret void
}

; Function Attrs: mustprogress nounwind uwtable
define internal void @_ZN12_GLOBAL__N_123FoldingSetNodeIDBuilderclESt17basic_string_viewIcSt11char_traitsIcEE(ptr noundef nonnull align 8 dereferenceable(8) %0, i64 %1, ptr %2) #0 align 2 {
  %4 = alloca %"class.std::basic_string_view", align 8
  %5 = alloca ptr, align 8
  %6 = alloca %"class.llvm::StringRef", align 8
  %7 = alloca %"class.llvm::StringRef", align 8
  %8 = getelementptr inbounds nuw { i64, ptr }, ptr %4, i32 0, i32 0
  store i64 %1, ptr %8, align 8
  %9 = getelementptr inbounds nuw { i64, ptr }, ptr %4, i32 0, i32 1
  store ptr %2, ptr %9, align 8
  store ptr %0, ptr %5, align 8
  %10 = load ptr, ptr %5, align 8
  %11 = call noundef zeroext i1 @_ZNKSt17basic_string_viewIcSt11char_traitsIcEE5emptyEv(ptr noundef nonnull align 8 dereferenceable(16) %4) #15
  br i1 %11, label %12, label %19

12:                                               ; preds = %3
  %13 = getelementptr inbounds nuw %"struct.(anonymous namespace)::FoldingSetNodeIDBuilder", ptr %10, i32 0, i32 0
  %14 = load ptr, ptr %13, align 8
  call void @llvm.memset.p0.i64(ptr align 8 %6, i8 0, i64 16, i1 false)
  call void @_ZN4llvm9StringRefC2Ev(ptr noundef nonnull align 8 dereferenceable(16) %6) #15
  %15 = getelementptr inbounds nuw { ptr, i64 }, ptr %6, i32 0, i32 0
  %16 = load ptr, ptr %15, align 8
  %17 = getelementptr inbounds nuw { ptr, i64 }, ptr %6, i32 0, i32 1
  %18 = load i64, ptr %17, align 8
  call void @_ZN4llvm16FoldingSetNodeID9AddStringENS_9StringRefE(ptr noundef nonnull align 8 dereferenceable(144) %14, ptr %16, i64 %18)
  br label %28

19:                                               ; preds = %3
  %20 = getelementptr inbounds nuw %"struct.(anonymous namespace)::FoldingSetNodeIDBuilder", ptr %10, i32 0, i32 0
  %21 = load ptr, ptr %20, align 8
  %22 = call noundef ptr @_ZNKSt17basic_string_viewIcSt11char_traitsIcEE5beginEv(ptr noundef nonnull align 8 dereferenceable(16) %4) #15
  %23 = call noundef i64 @_ZNKSt17basic_string_viewIcSt11char_traitsIcEE4sizeEv(ptr noundef nonnull align 8 dereferenceable(16) %4) #15
  call void @_ZN4llvm9StringRefC2EPKcm(ptr noundef nonnull align 8 dereferenceable(16) %7, ptr noundef %22, i64 noundef %23)
  %24 = getelementptr inbounds nuw { ptr, i64 }, ptr %7, i32 0, i32 0
  %25 = load ptr, ptr %24, align 8
  %26 = getelementptr inbounds nuw { ptr, i64 }, ptr %7, i32 0, i32 1
  %27 = load i64, ptr %26, align 8
  call void @_ZN4llvm16FoldingSetNodeID9AddStringENS_9StringRefE(ptr noundef nonnull align 8 dereferenceable(144) %21, ptr %25, i64 %27)
  br label %28

28:                                               ; preds = %19, %12
  ret void
}

; Function Attrs: mustprogress nounwind uwtable
define internal void @_ZN12_GLOBAL__N_123FoldingSetNodeIDBuilderclEPKN4llvm16itanium_demangle4NodeE(ptr noundef nonnull align 8 dereferenceable(8) %0, ptr noundef %1) #0 align 2 {
  %3 = alloca ptr, align 8
  %4 = alloca ptr, align 8
  store ptr %0, ptr %3, align 8
  store ptr %1, ptr %4, align 8
  %5 = load ptr, ptr %3, align 8
  %6 = getelementptr inbounds nuw %"struct.(anonymous namespace)::FoldingSetNodeIDBuilder", ptr %5, i32 0, i32 0
  %7 = load ptr, ptr %6, align 8
  %8 = load ptr, ptr %4, align 8
  call void @_ZN4llvm16FoldingSetNodeID10AddPointerEPKv(ptr noundef nonnull align 8 dereferenceable(144) %7, ptr noundef %8)
  ret void
}

; Function Attrs: mustprogress nounwind uwtable
define internal void @_ZN12_GLOBAL__N_123FoldingSetNodeIDBuilderclIN4llvm16itanium_demangle4Node4KindEEENSt9enable_ifIXoosr3stdE13is_integral_vIT_Esr3stdE9is_enum_vIS7_EEvE4typeES7_(ptr noundef nonnull align 8 dereferenceable(8) %0, i8 noundef zeroext %1) #0 align 2 {
  %3 = alloca ptr, align 8
  %4 = alloca i8, align 1
  store ptr %0, ptr %3, align 8
  store i8 %1, ptr %4, align 1
  %5 = load ptr, ptr %3, align 8
  %6 = getelementptr inbounds nuw %"struct.(anonymous namespace)::FoldingSetNodeIDBuilder", ptr %5, i32 0, i32 0
  %7 = load ptr, ptr %6, align 8
  %8 = load i8, ptr %4, align 1
  %9 = zext i8 %8 to i64
  call void @_ZN4llvm16FoldingSetNodeID10AddIntegerEy(ptr noundef nonnull align 8 dereferenceable(144) %7, i64 noundef %9)
  ret void
}

; Function Attrs: mustprogress nounwind uwtable
define internal void @_ZN12_GLOBAL__N_111profileCtorIJPN4llvm16itanium_demangle4NodeESt17basic_string_viewIcSt11char_traitsIcEEEEEvRNS1_16FoldingSetNodeIDENS3_4KindEDpT_(ptr noundef nonnull align 8 dereferenceable(144) %0, i8 noundef zeroext %1, ptr noundef %2, i64 %3, ptr %4) #0 {
  %6 = alloca %"class.std::basic_string_view", align 8
  %7 = alloca ptr, align 8
  %8 = alloca i8, align 1
  %9 = alloca ptr, align 8
  %10 = alloca %"struct.(anonymous namespace)::FoldingSetNodeIDBuilder", align 8
  %11 = alloca [3 x i32], align 4
  %12 = alloca %"class.std::basic_string_view", align 8
  %13 = getelementptr inbounds nuw { i64, ptr }, ptr %6, i32 0, i32 0
  store i64 %3, ptr %13, align 8
  %14 = getelementptr inbounds nuw { i64, ptr }, ptr %6, i32 0, i32 1
  store ptr %4, ptr %14, align 8
  store ptr %0, ptr %7, align 8
  store i8 %1, ptr %8, align 1
  store ptr %2, ptr %9, align 8
  %15 = getelementptr inbounds nuw %"struct.(anonymous namespace)::FoldingSetNodeIDBuilder", ptr %10, i32 0, i32 0
  %16 = load ptr, ptr %7, align 8
  store ptr %16, ptr %15, align 8
  %17 = load i8, ptr %8, align 1
  call void @_ZN12_GLOBAL__N_123FoldingSetNodeIDBuilderclIN4llvm16itanium_demangle4Node4KindEEENSt9enable_ifIXoosr3stdE13is_integral_vIT_Esr3stdE9is_enum_vIS7_EEvE4typeES7_(ptr noundef nonnull align 8 dereferenceable(8) %10, i8 noundef zeroext %17)
  %18 = load ptr, ptr %9, align 8
  call void @_ZN12_GLOBAL__N_123FoldingSetNodeIDBuilderclEPKN4llvm16itanium_demangle4NodeE(ptr noundef nonnull align 8 dereferenceable(8) %10, ptr noundef %18)
  store i32 0, ptr %11, align 4
  %19 = getelementptr inbounds i32, ptr %11, i64 1
  call void @llvm.memcpy.p0.p0.i64(ptr align 8 %12, ptr align 8 %6, i64 16, i1 false)
  %20 = getelementptr inbounds nuw { i64, ptr }, ptr %12, i32 0, i32 0
  %21 = load i64, ptr %20, align 8
  %22 = getelementptr inbounds nuw { i64, ptr }, ptr %12, i32 0, i32 1
  %23 = load ptr, ptr %22, align 8
  call void @_ZN12_GLOBAL__N_123FoldingSetNodeIDBuilderclESt17basic_string_viewIcSt11char_traitsIcEE(ptr noundef nonnull align 8 dereferenceable(8) %10, i64 %21, ptr %23)
  store i32 0, ptr %19, align 4
  %24 = getelementptr inbounds i32, ptr %11, i64 2
  store i32 0, ptr %24, align 4
  ret void
}

; Function Attrs: mustprogress nounwind uwtable
define internal void @_ZN12_GLOBAL__N_119ProfileSpecificNodeIN4llvm16itanium_demangle10AbiTagAttrEEclIJPNS2_4NodeESt17basic_string_viewIcSt11char_traitsIcEEEEEvDpT_(ptr noundef nonnull align 8 dereferenceable(8) %0, ptr noundef %1, i64 %2, ptr %3) #0 align 2 {
  %5 = alloca %"class.std::basic_string_view", align 8
  %6 = alloca ptr, align 8
  %7 = alloca ptr, align 8
  %8 = alloca %"class.std::basic_string_view", align 8
  %9 = getelementptr inbounds nuw { i64, ptr }, ptr %5, i32 0, i32 0
  store i64 %2, ptr %9, align 8
  %10 = getelementptr inbounds nuw { i64, ptr }, ptr %5, i32 0, i32 1
  store ptr %3, ptr %10, align 8
  store ptr %0, ptr %6, align 8
  store ptr %1, ptr %7, align 8
  %11 = load ptr, ptr %6, align 8
  %12 = getelementptr inbounds nuw %"struct.(anonymous namespace)::ProfileSpecificNode.30", ptr %11, i32 0, i32 0
  %13 = load ptr, ptr %12, align 8
  %14 = load ptr, ptr %7, align 8
  call void @llvm.memcpy.p0.p0.i64(ptr align 8 %8, ptr align 8 %5, i64 16, i1 false)
  %15 = getelementptr inbounds nuw { i64, ptr }, ptr %8, i32 0, i32 0
  %16 = load i64, ptr %15, align 8
  %17 = getelementptr inbounds nuw { i64, ptr }, ptr %8, i32 0, i32 1
  %18 = load ptr, ptr %17, align 8
  call void @_ZN12_GLOBAL__N_111profileCtorIJPN4llvm16itanium_demangle4NodeESt17basic_string_viewIcSt11char_traitsIcEEEEEvRNS1_16FoldingSetNodeIDENS3_4KindEDpT_(ptr noundef nonnull align 8 dereferenceable(144) %13, i8 noundef zeroext 9, ptr noundef %14, i64 %16, ptr %18)
  ret void
}

; Function Attrs: mustprogress nounwind uwtable
define internal void @_ZNK4llvm16itanium_demangle10AbiTagAttr5matchIN12_GLOBAL__N_119ProfileSpecificNodeIS1_EEEEvT_(ptr noundef nonnull align 8 dereferenceable(40) %0, ptr %1) #0 align 2 {
  %3 = alloca %"struct.(anonymous namespace)::ProfileSpecificNode.30", align 8
  %4 = alloca ptr, align 8
  %5 = alloca %"class.std::basic_string_view", align 8
  %6 = getelementptr inbounds nuw %"struct.(anonymous namespace)::ProfileSpecificNode.30", ptr %3, i32 0, i32 0
  store ptr %1, ptr %6, align 8
  store ptr %0, ptr %4, align 8
  %7 = load ptr, ptr %4, align 8
  %8 = getelementptr inbounds nuw %"struct.llvm::itanium_demangle::AbiTagAttr", ptr %7, i32 0, i32 1
  %9 = load ptr, ptr %8, align 8
  %10 = getelementptr inbounds nuw %"struct.llvm::itanium_demangle::AbiTagAttr", ptr %7, i32 0, i32 2
  call void @llvm.memcpy.p0.p0.i64(ptr align 8 %5, ptr align 8 %10, i64 16, i1 false)
  %11 = getelementptr inbounds nuw { i64, ptr }, ptr %5, i32 0, i32 0
  %12 = load i64, ptr %11, align 8
  %13 = getelementptr inbounds nuw { i64, ptr }, ptr %5, i32 0, i32 1
  %14 = load ptr, ptr %13, align 8
  call void @_ZN12_GLOBAL__N_119ProfileSpecificNodeIN4llvm16itanium_demangle10AbiTagAttrEEclIJPNS2_4NodeESt17basic_string_viewIcSt11char_traitsIcEEEEEvDpT_(ptr noundef nonnull align 8 dereferenceable(8) %3, ptr noundef %9, i64 %12, ptr %14)
  ret void
}

; Function Attrs: mustprogress nounwind uwtable
define internal void @_ZN12_GLOBAL__N_111ProfileNodeclIN4llvm16itanium_demangle10AbiTagAttrEEEvPKT_(ptr noundef nonnull align 8 dereferenceable(8) %0, ptr noundef %1) #0 align 2 {
  %3 = alloca ptr, align 8
  %4 = alloca ptr, align 8
  %5 = alloca %"struct.(anonymous namespace)::ProfileSpecificNode.30", align 8
  store ptr %0, ptr %3, align 8
  store ptr %1, ptr %4, align 8
  %6 = load ptr, ptr %3, align 8
  %7 = load ptr, ptr %4, align 8
  %8 = getelementptr inbounds nuw %"struct.(anonymous namespace)::ProfileSpecificNode.30", ptr %5, i32 0, i32 0
  %9 = getelementptr inbounds nuw %"struct.(anonymous namespace)::ProfileNode", ptr %6, i32 0, i32 0
  %10 = load ptr, ptr %9, align 8
  store ptr %10, ptr %8, align 8
  %11 = getelementptr inbounds nuw %"struct.(anonymous namespace)::ProfileSpecificNode.30", ptr %5, i32 0, i32 0
  %12 = load ptr, ptr %11, align 8
  call void @_ZNK4llvm16itanium_demangle10AbiTagAttr5matchIN12_GLOBAL__N_119ProfileSpecificNodeIS1_EEEEvT_(ptr noundef nonnull align 8 dereferenceable(40) %7, ptr %12)
  ret void
}