; Function Attrs: mustprogress nounwind uwtable
define internal fastcc void @_ZN12_GLOBAL__N_111ProfileNodeclIN4llvm16itanium_demangle10AbiTagAttrEEEvPKT_(ptr nonnull %.0.val, ptr noundef nonnull readonly captures(none) %0) unnamed_addr #0 align 2 {
  %2 = getelementptr inbounds nuw i8, ptr %0, i64 16
  %3 = load ptr, ptr %2, align 8
  %4 = getelementptr inbounds nuw i8, ptr %0, i64 24
  %.sroa.0.0.copyload.i = load i64, ptr %4, align 8
  %.sroa.2.0..sroa_idx.i = getelementptr inbounds nuw i8, ptr %0, i64 32
  %.sroa.2.0.copyload.i = load ptr, ptr %.sroa.2.0..sroa_idx.i, align 8
  tail call void @_ZN4llvm16FoldingSetNodeID10AddIntegerEy(ptr noundef nonnull align 8 dereferenceable(144) %.0.val, i64 noundef 9)
  %5 = ptrtoint ptr %3 to i64
  tail call void @_ZN4llvm16FoldingSetNodeID10AddIntegerEy(ptr noundef nonnull align 8 dereferenceable(144) %.0.val, i64 noundef %5)
  %6 = icmp eq i64 %.sroa.0.0.copyload.i, 0
  br i1 %6, label %7, label %8

7:                                                ; preds = %1
  tail call void @_ZN4llvm16FoldingSetNodeID9AddStringENS_9StringRefE(ptr noundef nonnull align 8 dereferenceable(144) %.0.val, ptr null, i64 0) #20
  br label %_ZNK4llvm16itanium_demangle10AbiTagAttr5matchIN12_GLOBAL__N_119ProfileSpecificNodeIS1_EEEEvT_.exit

8:                                                ; preds = %1
  tail call void @_ZN4llvm16FoldingSetNodeID9AddStringENS_9StringRefE(ptr noundef nonnull align 8 dereferenceable(144) %.0.val, ptr %.sroa.2.0.copyload.i, i64 %.sroa.0.0.copyload.i) #20
  br label %_ZNK4llvm16itanium_demangle10AbiTagAttr5matchIN12_GLOBAL__N_119ProfileSpecificNodeIS1_EEEEvT_.exit

_ZNK4llvm16itanium_demangle10AbiTagAttr5matchIN12_GLOBAL__N_119ProfileSpecificNodeIS1_EEEEvT_.exit: ; preds = %7, %8
  ret void
}